; Function Attrs: nounwind uwtable
define void @lv_label_set_text_static(ptr noundef %0, ptr noundef %1) local_unnamed_addr #0 {
  %3 = getelementptr inbounds nuw i8, ptr %0, i64 116
  %4 = load i8, ptr %3, align 4
  %5 = and i8 %4, 8
  %6 = icmp eq i8 %5, 0
  br i1 %6, label %7, label %11

7:                                                ; preds = %2
  %8 = getelementptr inbounds nuw i8, ptr %0, i64 64
  %9 = load ptr, ptr %8, align 8, !tbaa !3
  %.not = icmp eq ptr %9, null
  br i1 %.not, label %11, label %10

10:                                               ; preds = %7
  tail call void @lv_free(ptr noundef nonnull %9) #7
  store ptr null, ptr %8, align 8, !tbaa !3
  br label %11

11:                                               ; preds = %10, %7, %2
  %.not11 = icmp eq ptr %1, null
  br i1 %.not11, label %16, label %12

12:                                               ; preds = %11
  %13 = load i8, ptr %3, align 4
  %14 = or i8 %13, 8
  store i8 %14, ptr %3, align 4
  %15 = getelementptr inbounds nuw i8, ptr %0, i64 64
  store ptr %1, ptr %15, align 8, !tbaa !3
  br label %16

16:                                               ; preds = %12, %11
  tail call fastcc void @lv_label_refr_text(ptr noundef nonnull %0)
  ret void
}